; Function Attrs: nounwind uwtable
define noalias nonnull ptr @l_Lean_IR_EmitC_emitDel(ptr noundef %0, ptr readnone captures(none) %1, ptr noundef %2) local_unnamed_addr #0 {
  %4 = load ptr, ptr @l_Lean_IR_EmitC_emitDel___closed__1, align 8, !tbaa !4
  %5 = tail call ptr @lean_string_append(ptr noundef %2, ptr noundef %4) #5
  %6 = tail call ptr @l___private_Init_Data_Repr_0__Nat_reprFast(ptr noundef %0) #5
  %7 = load ptr, ptr @l_Lean_IR_EmitC_argToCString___closed__1, align 8, !tbaa !4
  %8 = tail call ptr @lean_string_append(ptr noundef %7, ptr noundef %6) #5
  %9 = ptrtoint ptr %6 to i64
  %10 = and i64 %9, 1
  %.not = icmp eq i64 %10, 0
  br i1 %.not, label %11, label %lean_dec.exit18

11:                                               ; preds = %3
  %12 = load i32, ptr %6, align 4, !tbaa !8
  %13 = icmp sgt i32 %12, 1
  br i1 %13, label %14, label %16, !prof !11

14:                                               ; preds = %11
  %15 = add nsw i32 %12, -1
  store i32 %15, ptr %6, align 4, !tbaa !8
  br label %lean_dec.exit18

16:                                               ; preds = %11
  %.not.i = icmp eq i32 %12, 0
  br i1 %.not.i, label %lean_dec.exit18, label %17

17:                                               ; preds = %16
  tail call void @lean_dec_ref_cold(ptr noundef nonnull %6) #5
  br label %lean_dec.exit18

lean_dec.exit18:                                  ; preds = %17, %16, %14, %3
  %18 = tail call ptr @lean_string_append(ptr noundef %5, ptr noundef %8) #5
  %19 = ptrtoint ptr %8 to i64
  %20 = and i64 %19, 1
  %.not21 = icmp eq i64 %20, 0
  br i1 %.not21, label %21, label %lean_dec.exit

21:                                               ; preds = %lean_dec.exit18
  %22 = load i32, ptr %8, align 4, !tbaa !8
  %23 = icmp sgt i32 %22, 1
  br i1 %23, label %24, label %26, !prof !11

24:                                               ; preds = %21
  %25 = add nsw i32 %22, -1
  store i32 %25, ptr %8, align 4, !tbaa !8
  br label %lean_dec.exit

26:                                               ; preds = %21
  %.not.i19 = icmp eq i32 %22, 0
  br i1 %.not.i19, label %lean_dec.exit, label %27

27:                                               ; preds = %26
  tail call void @lean_dec_ref_cold(ptr noundef nonnull %8) #5
  br label %lean_dec.exit

lean_dec.exit:                                    ; preds = %27, %26, %24, %lean_dec.exit18
  %28 = load ptr, ptr @l_Lean_IR_EmitC_emitInc___lambda__1___closed__1, align 8, !tbaa !4
  %29 = tail call ptr @lean_string_append(ptr noundef %18, ptr noundef %28) #5
  %30 = load ptr, ptr @l_Lean_IR_EmitC_emitLn___rarg___closed__1, align 8, !tbaa !4
  %31 = tail call ptr @lean_string_append(ptr noundef %29, ptr noundef %30) #5
  tail call void @lean_inc_heartbeat() #5
  %32 = tail call noalias ptr @mi_malloc_small(i64 noundef 24) #5
  %33 = icmp eq ptr %32, null
  br i1 %33, label %34, label %lean_alloc_ctor.exit

34:                                               ; preds = %lean_dec.exit
  tail call void @lean_internal_panic_out_of_memory() #6
  unreachable

lean_alloc_ctor.exit:                             ; preds = %lean_dec.exit
  %35 = getelementptr inbounds nuw i8, ptr %32, i64 4
  store i32 1, ptr %32, align 4, !tbaa !8
  store i32 131096, ptr %35, align 4
  %36 = getelementptr inbounds nuw i8, ptr %32, i64 8
  store ptr inttoptr (i64 1 to ptr), ptr %36, align 8, !tbaa !4
  %37 = getelementptr inbounds nuw i8, ptr %32, i64 16
  store ptr %31, ptr %37, align 8, !tbaa !4
  ret ptr %32
}